ccopy_reg
_reconstructor
p1
(cnltk.classify.decisiontree
DecisionTreeClassifier
p2
c__builtin__
object
p3
NtRp4
(dp5
S'_fname'
p6
S'endswith(he)'
p7
sS'_label'
p8
S'IN'
p9
sS'_decisions'
p10
(dp11
I00
g1
(g2
g3
NtRp12
(dp13
g6
S'endswith(s)'
p14
sg8
g9
sg10
(dp15
I00
g1
(g2
g3
NtRp16
(dp17
g6
S'endswith(f)'
p18
sg8
g9
sg10
(dp19
I00
g1
(g2
g3
NtRp20
(dp21
g6
S'endswith(``)'
p22
sg8
g9
sg10
(dp23
I00
g1
(g2
g3
NtRp24
(dp25
g6
S"endswith('')"
p26
sg8
g9
sg10
(dp27
I00
g1
(g2
g3
NtRp28
(dp29
g6
S'endswith(and)'
p30
sg8
g9
sg10
(dp31
I00
g1
(g2
g3
NtRp32
(dp33
g6
S'endswith(,)'
p34
sg8
g9
sg10
(dp35
I00
g1
(g2
g3
NtRp36
(dp37
g6
S'endswith(.)'
p38
sg8
g9
sg10
(dp39
I00
g1
(g2
g3
NtRp40
(dp41
g6
S'endswith(d)'
p42
sg8
g9
sg10
(dp43
I00
g1
(g2
g3
NtRp44
(dp45
g6
S'endswith(at)'
p46
sg8
g9
sg10
(dp47
I00
g1
(g2
g3
NtRp48
(dp49
g6
S'endswith(in)'
p50
sg8
g9
sg10
(dp51
I00
g1
(g2
g3
NtRp52
(dp53
g6
S'endswith(h)'
p54
sg8
g9
sg10
(dp55
I00
g1
(g2
g3
NtRp56
(dp57
g6
S'endswith(a)'
p58
sg8
g9
sg10
(dp59
I00
g1
(g2
g3
NtRp60
(dp61
g6
S'endswith(g)'
p62
sg8
g9
sg10
(dp63
I00
g1
(g2
g3
NtRp64
(dp65
g6
S'endswith(ty)'
p66
sg8
S'AP'
p67
sg10
(dp68
I00
g1
(g2
g3
NtRp69
(dp70
g6
S'endswith(o)'
p71
sg8
g67
sg10
(dp72
I00
g1
(g2
g3
NtRp73
(dp74
g6
S'endswith(by)'
p75
sg8
g67
sg10
(dp76
I00
g1
(g2
g3
NtRp77
(dp78
g6
S'endswith(it)'
p79
sg8
g67
sg10
(dp80
I00
g1
(g2
g3
NtRp81
(dp82
g6
S'endswith(le)'
p83
sg8
g67
sg10
(dp84
I00
g1
(g2
g3
NtRp85
(dp86
g6
S'endswith(her)'
p87
sg8
g67
sg10
(dp88
I00
g1
(g2
g3
NtRp89
(dp90
g6
S'endswith(for)'
p91
sg8
S'NN'
p92
sg10
(dp93
I00
g1
(g2
g3
NtRp94
(dp95
g6
S'endswith(en)'
p96
sg8
g92
sg10
(dp97
I00
g1
(g2
g3
NtRp98
(dp99
g6
S'endswith(are)'
p100
sg8
g92
sg10
(dp101
I00
g1
(g2
g3
NtRp102
(dp103
g6
S'endswith(nt)'
p104
sg8
g92
sg10
(dp105
I00
g1
(g2
g3
NtRp106
(dp107
g6
S'endswith(ve)'
p108
sg8
g92
sg10
(dp109
I00
g1
(g2
g3
NtRp110
(dp111
g6
S'endswith(ly)'
p112
sg8
g92
sg10
(dp113
I00
g1
(g2
g3
NtRp114
(dp115
g6
S'endswith(an)'
p116
sg8
g92
sg10
(dp117
I00
g1
(g2
g3
NtRp118
(dp119
g6
S'endswith(ay)'
p120
sg8
g92
sg10
(dp121
I00
g1
(g2
g3
NtRp122
(dp123
g6
S'endswith(or)'
p124
sg8
g92
sg10
(dp125
I00
g1
(g2
g3
NtRp126
(dp127
g6
S'endswith(te)'
p128
sg8
g92
sg10
(dp129
I00
g1
(g2
g3
NtRp130
(dp131
g6
S'endswith(ll)'
p132
sg8
g92
sg10
(dp133
I00
g1
(g2
g3
NtRp134
(dp135
g6
S'endswith(k)'
p136
sg8
g92
sg10
(dp137
I00
g1
(g2
g3
NtRp138
(dp139
g6
Nsg8
S'NN'
p140
sg10
NsS'_default'
p141
NsbsI01
g1
(g2
g3
NtRp142
(dp143
g6
Nsg8
S'VBD'
p144
sg10
Nsg141
Nsbssg141
NsbsI01
g1
(g2
g3
NtRp145
(dp146
g6
Nsg8
S'JJ'
p147
sg10
Nsg141
Nsbssg141
NsbsI01
g1
(g2
g3
NtRp148
(dp149
g6
Nsg8
S'VB'
p150
sg10
Nsg141
Nsbssg141
NsbsI01
g1
(g2
g3
NtRp151
(dp152
g6
Nsg8
S'JJ-TL'
p153
sg10
Nsg141
Nsbssg141
NsbsI01
g1
(g2
g3
NtRp154
(dp155
g6
Nsg8
S'NR'
p156
sg10
Nsg141
Nsbssg141
NsbsI01
g1
(g2
g3
NtRp157
(dp158
g6
Nsg8
S'NP'
p159
sg10
Nsg141
Nsbssg141
NsbsI01
g1
(g2
g3
NtRp160
(dp161
g6
Nsg8
S'RB'
p162
sg10
Nsg141
Nsbssg141
NsbsI01
g1
(g2
g3
NtRp163
(dp164
g6
Nsg8
S'JJ-TL'
p165
sg10
Nsg141
Nsbssg141
NsbsI01
g1
(g2
g3
NtRp166
(dp167
g6
Nsg8
S'JJ'
p168
sg10
Nsg141
Nsbssg141
NsbsI01
g1
(g2
g3
NtRp169
(dp170
g6
Nsg8
S'BER'
p171
sg10
Nsg141
Nsbssg141
NsbsI01
g1
(g2
g3
NtRp172
(dp173
g6
Nsg8
S'RB'
p174
sg10
Nsg141
Nsbssg141
NsbsI01
g1
(g2
g3
NtRp175
(dp176
g6
Nsg8
S'IN'
p177
sg10
Nsg141
Nsbssg141
NsbsI01
g1
(g2
g3
NtRp178
(dp179
g6
Nsg8
S'RBR'
p180
sg10
Nsg141
Nsbssg141
NsbsI01
g1
(g2
g3
NtRp181
(dp182
g6
Nsg8
S'JJ'
p183
sg10
Nsg141
Nsbssg141
NsbsI01
g1
(g2
g3
NtRp184
(dp185
g6
Nsg8
S'PPS'
p186
sg10
Nsg141
Nsbssg141
NsbsI01
g1
(g2
g3
NtRp187
(dp188
g6
Nsg8
S'IN'
p189
sg10
Nsg141
Nsbssg141
NsbsI01
g1
(g2
g3
NtRp190
(dp191
g6
S'endswith(to)'
p192
sg8
S'IN'
p193
sg10
(dp194
I00
g1
(g2
g3
NtRp195
(dp196
g6
Nsg8
S'AT'
p197
sg10
Nsg141
NsbsI01
g1
(g2
g3
NtRp198
(dp199
g6
Nsg8
S'TO'
p200
sg10
Nsg141
Nsbssg141
Nsbssg141
NsbsI01
g1
(g2
g3
NtRp201
(dp202
g6
Nsg8
S'NN-TL'
p203
sg10
Nsg141
Nsbssg141
NsbsI01
g1
(g2
g3
NtRp204
(dp205
g6
S'endswith(ing)'
p206
sg8
g9
sg10
(dp207
I00
g1
(g2
g3
NtRp208
(dp209
g6
Nsg8
g9
sg10
Nsg141
NsbsI01
g1
(g2
g3
NtRp210
(dp211
g6
Nsg8
S'VBG'
p212
sg10
Nsg141
Nsbssg141
Nsbssg141
NsbsI01
g1
(g2
g3
NtRp213
(dp214
g6
Nsg8
S'AT'
p215
sg10
Nsg141
Nsbssg141
NsbsI01
g1
(g2
g3
NtRp216
(dp217
g6
Nsg8
S'WDT'
p218
sg10
Nsg141
Nsbssg141
NsbsI01
g1
(g2
g3
NtRp219
(dp220
g6
Nsg8
S'IN'
p221
sg10
Nsg141
Nsbssg141
NsbsI01
g1
(g2
g3
NtRp222
(dp223
g6
Nsg8
S'CS'
p224
sg10
Nsg141
Nsbssg141
NsbsI01
g1
(g2
g3
NtRp225
(dp226
g6
S'endswith(had)'
p227
sg8
S'VBD'
p228
sg10
(dp229
I00
g1
(g2
g3
NtRp230
(dp231
g6
S'endswith(ed)'
p232
sg8
g228
sg10
(dp233
I00
g1
(g2
g3
NtRp234
(dp235
g6
S'endswith(nd)'
p236
sg8
S'NN'
p237
sg10
(dp238
I00
g1
(g2
g3
NtRp239
(dp240
g6
Nsg8
S'VBD'
p241
sg10
Nsg141
NsbsI01
g1
(g2
g3
NtRp242
(dp243
g6
Nsg8
S'NN'
p244
sg10
Nsg141
Nsbssg141
NsbsI01
g1
(g2
g3
NtRp245
(dp246
g6
Nsg8
S'VBN'
p247
sg10
Nsg141
Nsbssg141
NsbsI01
g1
(g2
g3
NtRp248
(dp249
g6
Nsg8
S'HVD'
p250
sg10
Nsg141
Nsbssg141
Nsbssg141
NsbsI01
g1
(g2
g3
NtRp251
(dp252
g6
Nsg8
S'.'
sg10
Nsg141
Nsbssg141
NsbsI01
g1
(g2
g3
NtRp253
(dp254
g6
Nsg8
S','
sg10
Nsg141
Nsbssg141
NsbsI01
g1
(g2
g3
NtRp255
(dp256
g6
Nsg8
S'CC'
p257
sg10
Nsg141
Nsbssg141
NsbsI01
g1
(g2
g3
NtRp258
(dp259
g6
Nsg8
S"''"
p260
sg10
Nsg141
Nsbssg141
NsbsI01
g1
(g2
g3
NtRp261
(dp262
g6
Nsg8
S'``'
p263
sg10
Nsg141
Nsbssg141
NsbsI01
g1
(g2
g3
NtRp264
(dp265
g6
Nsg8
S'IN'
p266
sg10
Nsg141
Nsbssg141
NsbsI01
g1
(g2
g3
NtRp267
(dp268
g6
S'endswith(was)'
p269
sg8
S'NNS'
p270
sg10
(dp271
I00
g1
(g2
g3
NtRp272
(dp273
g6
S"endswith('s)"
p274
sg8
g270
sg10
(dp275
I00
g1
(g2
g3
NtRp276
(dp277
g6
S'endswith(is)'
p278
sg8
g270
sg10
(dp279
I00
g1
(g2
g3
NtRp280
(dp281
g6
Nsg8
S'NNS'
p282
sg10
Nsg141
NsbsI01
g1
(g2
g3
NtRp283
(dp284
g6
Nsg8
S'DT'
p285
sg10
Nsg141
Nsbssg141
NsbsI01
g1
(g2
g3
NtRp286
(dp287
g6
Nsg8
S'NP$'
p288
sg10
Nsg141
Nsbssg141
NsbsI01
g1
(g2
g3
NtRp289
(dp290
g6
Nsg8
S'BEDZ'
p291
sg10
Nsg141
Nsbssg141
Nsbssg141
NsbsI01
g1
(g2
g3
NtRp292
(dp293
g6
Nsg8
S'AT'
p294
sg10
Nsg141
Nsbssg141
Nsb.